target datalayout = "e-m:e-p270:32:32-p271:32:32-p272:64:64-i64:64-i128:128-f80:128-n8:16:32:64-S128"
target triple = "x86_64-pc-linux-gnu"

%"class.base::FilePath" = type { %"class.std::__cxx11::basic_string" }
%"class.std::__cxx11::basic_string" = type { %"struct.std::__cxx11::basic_string<char>::_Alloc_hider", i64, %union.anon }
%"struct.std::__cxx11::basic_string<char>::_Alloc_hider" = type { ptr }
%union.anon = type { i64, [8 x i8] }

; Function Attrs: mustprogress uwtable
define noundef zeroext i1 @_ZN4base8FilePath14ReadFromPickleEPNS_14PickleIteratorE(ptr noundef nonnull align 8 dereferenceable(32) %0, ptr noundef %1) #1 align 2 {
  %3 = alloca i1, align 1
  %4 = alloca ptr, align 8
  %5 = alloca ptr, align 8
  store ptr %0, ptr %4, align 8, !tbaa !3
  store ptr %1, ptr %5, align 8, !tbaa !66
  %6 = load ptr, ptr %4, align 8
  %7 = load ptr, ptr %5, align 8, !tbaa !66
  %8 = getelementptr inbounds nuw %"class.base::FilePath", ptr %6, i32 0, i32 0
  %9 = call noundef zeroext i1 @_ZN4base14PickleIterator10ReadStringEPNSt7__cxx1112basic_stringIcSt11char_traitsIcESaIcEEE(ptr noundef nonnull align 8 dereferenceable(24) %7, ptr noundef %8)
  br i1 %9, label %11, label %10

10:                                               ; preds = %2
  store i1 false, ptr %3, align 1
  br label %17

11:                                               ; preds = %2
  %12 = getelementptr inbounds nuw %"class.base::FilePath", ptr %6, i32 0, i32 0
  %13 = call noundef i64 @_ZNKSt7__cxx1112basic_stringIcSt11char_traitsIcESaIcEE4findEcm(ptr noundef nonnull align 8 dereferenceable(32) %12, i8 noundef signext 0, i64 noundef 0) #15
  %14 = icmp ne i64 %13, -1
  br i1 %14, label %15, label %16

15:                                               ; preds = %11
  store i1 false, ptr %3, align 1
  br label %17

16:                                               ; preds = %11
  store i1 true, ptr %3, align 1
  br label %17

17:                                               ; preds = %16, %15, %10
  %18 = load i1, ptr %3, align 1
  ret i1 %18
}