; Function Attrs: mustprogress uwtable
define noundef zeroext i1 @_ZN4base8FilePath14ReadFromPickleEPNS_14PickleIteratorE(ptr noundef nonnull align 8 dereferenceable(32) %0, ptr noundef nonnull %1) local_unnamed_addr #1 align 2 {
  %3 = tail call noundef zeroext i1 @_ZN4base14PickleIterator10ReadStringEPNSt7__cxx1112basic_stringIcSt11char_traitsIcESaIcEEE(ptr noundef nonnull align 8 dereferenceable(24) %1, ptr noundef nonnull %0)
  br i1 %3, label %4, label %6

4:                                                ; preds = %2
  %5 = tail call noundef i64 @_ZNKSt7__cxx1112basic_stringIcSt11char_traitsIcESaIcEE4findEcm(ptr noundef nonnull align 8 dereferenceable(32) %0, i8 noundef signext 0, i64 noundef 0) #22
  %.not = icmp eq i64 %5, -1
  br label %6

6:                                                ; preds = %4, %2
  %.0 = phi i1 [ false, %2 ], [ %.not, %4 ]
  ret i1 %.0
}